target datalayout = "e-m:e-p270:32:32-p271:32:32-p272:64:64-i64:64-i128:128-f80:128-n8:16:32:64-S128"
target triple = "x86_64-unknown-linux-gnu"

; Function Attrs: nounwind sspstrong uwtable
define internal void @unlock_user(ptr noundef %host_ptr, i64 noundef %guest_addr, i64 noundef %len) #0 {
entry:
  %host_ptr.addr = alloca ptr, align 8
  %guest_addr.addr = alloca i64, align 8
  %len.addr = alloca i64, align 8
  store ptr %host_ptr, ptr %host_ptr.addr, align 8
  store i64 %guest_addr, ptr %guest_addr.addr, align 8
  store i64 %len, ptr %len.addr, align 8
  ret void
}

; Function Attrs: nounwind sspstrong uwtable
define internal i32 @ldub_p(ptr noundef %ptr) #0 {
entry:
  %ptr.addr = alloca ptr, align 8
  store ptr %ptr, ptr %ptr.addr, align 8
  %0 = load ptr, ptr %ptr.addr, align 8
  %1 = load i8, ptr %0, align 1
  %conv = zext i8 %1 to i32
  ret i32 %conv
}

; Function Attrs: nounwind sspstrong uwtable
define internal i32 @check_zeroed_user(i64 noundef %addr, i64 noundef %ksize, i64 noundef %usize) #0 {
entry:
  %retval = alloca i32, align 4
  %addr.addr = alloca i64, align 8
  %ksize.addr = alloca i64, align 8
  %usize.addr = alloca i64, align 8
  %i = alloca i32, align 4
  %b = alloca i8, align 1
  %__gaddr = alloca i64, align 8
  %__hptr = alloca ptr, align 8
  %__ret = alloca i64, align 8
  %tmp = alloca i64, align 8
  store i64 %addr, ptr %addr.addr, align 8
  store i64 %ksize, ptr %ksize.addr, align 8
  store i64 %usize, ptr %usize.addr, align 8
  %0 = load i64, ptr %usize.addr, align 8
  %1 = load i64, ptr %ksize.addr, align 8
  %cmp = icmp ule i64 %0, %1
  br i1 %cmp, label %if.then, label %if.end

if.then:                                          ; preds = %entry
  store i32 1, ptr %retval, align 4
  br label %return

if.end:                                           ; preds = %entry
  %2 = load i64, ptr %ksize.addr, align 8
  %conv = trunc i64 %2 to i32
  store i32 %conv, ptr %i, align 4
  br label %for.cond

for.cond:                                         ; preds = %for.inc, %if.end
  %3 = load i32, ptr %i, align 4
  %conv1 = sext i32 %3 to i64
  %4 = load i64, ptr %usize.addr, align 8
  %cmp2 = icmp ult i64 %conv1, %4
  br i1 %cmp2, label %for.body, label %for.end

for.body:                                         ; preds = %for.cond
  %5 = load i64, ptr %addr.addr, align 8
  %6 = load i32, ptr %i, align 4
  %conv4 = sext i32 %6 to i64
  %add = add i64 %5, %conv4
  store i64 %add, ptr %__gaddr, align 8
  store i64 0, ptr %__ret, align 8
  %7 = load i64, ptr %__gaddr, align 8
  %call = call ptr @lock_user(i32 noundef 1, i64 noundef %7, i64 noundef 1, i1 noundef zeroext true)
  store ptr %call, ptr %__hptr, align 8
  %tobool = icmp ne ptr %call, null
  br i1 %tobool, label %if.then5, label %if.else

if.then5:                                         ; preds = %for.body
  br label %do.body

do.body:                                          ; preds = %if.then5
  %8 = load ptr, ptr %__hptr, align 8
  %call6 = call i32 @ldub_p(ptr noundef %8)
  %conv7 = trunc i32 %call6 to i8
  store i8 %conv7, ptr %b, align 1
  br label %do.end

do.end:                                           ; preds = %do.body
  %9 = load ptr, ptr %__hptr, align 8
  %10 = load i64, ptr %__gaddr, align 8
  call void @unlock_user(ptr noundef %9, i64 noundef %10, i64 noundef 0)
  br label %if.end8

if.else:                                          ; preds = %for.body
  store i8 0, ptr %b, align 1
  store i64 -14, ptr %__ret, align 8
  br label %if.end8

if.end8:                                          ; preds = %if.else, %do.end
  %11 = load i64, ptr %__ret, align 8
  store i64 %11, ptr %tmp, align 8
  %12 = load i64, ptr %tmp, align 8
  %tobool9 = icmp ne i64 %12, 0
  br i1 %tobool9, label %if.then10, label %if.end11

if.then10:                                        ; preds = %if.end8
  store i32 -14, ptr %retval, align 4
  br label %return

if.end11:                                         ; preds = %if.end8
  %13 = load i8, ptr %b, align 1
  %conv12 = zext i8 %13 to i32
  %cmp13 = icmp ne i32 %conv12, 0
  br i1 %cmp13, label %if.then15, label %if.end16

if.then15:                                        ; preds = %if.end11
  store i32 0, ptr %retval, align 4
  br label %return

if.end16:                                         ; preds = %if.end11
  br label %for.inc

for.inc:                                          ; preds = %if.end16
  %14 = load i32, ptr %i, align 4
  %inc = add i32 %14, 1
  store i32 %inc, ptr %i, align 4
  br label %for.cond, !llvm.loop !46

for.end:                                          ; preds = %for.cond
  store i32 1, ptr %retval, align 4
  br label %return

return:                                           ; preds = %for.end, %if.then15, %if.then10, %if.then
  %15 = load i32, ptr %retval, align 4
  ret i32 %15
}