; Function Attrs: nounwind sspstrong uwtable
define internal fastcc range(i32 -14, 2) i32 @check_zeroed_user(i64 noundef range(i64 1, 0) %addr, i64 noundef range(i64 48, 4294967296) %usize) unnamed_addr #2 {
entry:
  %cmp = icmp samesign ult i64 %usize, 57
  br i1 %cmp, label %return, label %for.body

for.cond:                                         ; preds = %if.end8
  %inc = add i32 %i.011, 1
  %conv1 = sext i32 %inc to i64
  %cmp2 = icmp ugt i64 %usize, %conv1
  br i1 %cmp2, label %for.body, label %return, !llvm.loop !48

for.body:                                         ; preds = %entry, %for.cond
  %conv112 = phi i64 [ %conv1, %for.cond ], [ 56, %entry ]
  %i.011 = phi i32 [ %inc, %for.cond ], [ 56, %entry ]
  %add = add i64 %conv112, %addr
  %call = tail call ptr @lock_user(i32 noundef 1, i64 noundef %add, i64 noundef 1, i1 noundef zeroext true) #27
  %tobool.not.not = icmp eq ptr %call, null
  br i1 %tobool.not.not, label %return, label %if.end8

if.end8:                                          ; preds = %for.body
  %call.val = load i8, ptr %call, align 1
  %.not = icmp eq i8 %call.val, 0
  br i1 %.not, label %for.cond, label %return

return:                                           ; preds = %for.body, %if.end8, %for.cond, %entry
  %retval.0 = phi i32 [ 1, %entry ], [ -14, %for.body ], [ 1, %for.cond ], [ 0, %if.end8 ]
  ret i32 %retval.0
}